; ModuleID = '36/933.c'
source_filename = "36/933.c"
target datalayout = "e-m:e-p270:32:32-p271:32:32-p272:64:64-i64:64-f80:128-n8:16:32:64-S128"
target triple = "x86_64-pc-linux-gnu"

@.str = private unnamed_addr constant [6 x i8] c"%s %s\00", align 1
@.str.1 = private unnamed_addr constant [3 x i8] c"NO\00", align 1
@.str.2 = private unnamed_addr constant [4 x i8] c"YES\00", align 1

; Function Attrs: noinline nounwind uwtable
define dso_local i32 @main() #0 {
  %1 = alloca i32, align 4
  %2 = alloca [10000 x i8], align 16
  %3 = alloca [10000 x i8], align 16
  %4 = alloca i32, align 4
  %5 = alloca i32, align 4
  %6 = alloca i8, align 1
  store i32 0, i32* %1, align 4
  %7 = call i32 (i8*, ...) @__isoc99_scanf(i8* getelementptr inbounds ([6 x i8], [6 x i8]* @.str, i64 0, i64 0), [10000 x i8]* %2, [10000 x i8]* %3)
  %8 = getelementptr inbounds [10000 x i8], [10000 x i8]* %2, i64 0, i64 0
  %9 = call i64 @strlen(i8* %8) #3
  %10 = getelementptr inbounds [10000 x i8], [10000 x i8]* %3, i64 0, i64 0
  %11 = call i64 @strlen(i8* %10) #3
  %12 = icmp ne i64 %9, %11
  br i1 %12, label %13, label %15

13:                                               ; preds = %0
  %14 = call i32 (i8*, ...) @printf(i8* getelementptr inbounds ([3 x i8], [3 x i8]* @.str.1, i64 0, i64 0))
  br label %127

15:                                               ; preds = %0
  store i32 0, i32* %4, align 4
  br label %16

16:                                               ; preds = %63, %15
  %17 = load i32, i32* %4, align 4
  %18 = sext i32 %17 to i64
  %19 = getelementptr inbounds [10000 x i8], [10000 x i8]* %2, i64 0, i64 0
  %20 = call i64 @strlen(i8* %19) #3
  %21 = icmp ult i64 %18, %20
  br i1 %21, label %22, label %66

22:                                               ; preds = %16
  %23 = load i32, i32* %4, align 4
  store i32 %23, i32* %5, align 4
  br label %24

24:                                               ; preds = %59, %22
  %25 = load i32, i32* %5, align 4
  %26 = sext i32 %25 to i64
  %27 = getelementptr inbounds [10000 x i8], [10000 x i8]* %2, i64 0, i64 0
  %28 = call i64 @strlen(i8* %27) #3
  %29 = icmp ult i64 %26, %28
  br i1 %29, label %30, label %62

30:                                               ; preds = %24
  %31 = load i32, i32* %4, align 4
  %32 = sext i32 %31 to i64
  %33 = getelementptr inbounds [10000 x i8], [10000 x i8]* %2, i64 0, i64 %32
  %34 = load i8, i8* %33, align 1
  %35 = sext i8 %34 to i32
  %36 = load i32, i32* %5, align 4
  %37 = sext i32 %36 to i64
  %38 = getelementptr inbounds [10000 x i8], [10000 x i8]* %2, i64 0, i64 %37
  %39 = load i8, i8* %38, align 1
  %40 = sext i8 %39 to i32
  %41 = icmp sgt i32 %35, %40
  br i1 %41, label %42, label %58

42:                                               ; preds = %30
  %43 = load i32, i32* %4, align 4
  %44 = sext i32 %43 to i64
  %45 = getelementptr inbounds [10000 x i8], [10000 x i8]* %2, i64 0, i64 %44
  %46 = load i8, i8* %45, align 1
  store i8 %46, i8* %6, align 1
  %47 = load i32, i32* %5, align 4
  %48 = sext i32 %47 to i64
  %49 = getelementptr inbounds [10000 x i8], [10000 x i8]* %2, i64 0, i64 %48
  %50 = load i8, i8* %49, align 1
  %51 = load i32, i32* %4, align 4
  %52 = sext i32 %51 to i64
  %53 = getelementptr inbounds [10000 x i8], [10000 x i8]* %2, i64 0, i64 %52
  store i8 %50, i8* %53, align 1
  %54 = load i8, i8* %6, align 1
  %55 = load i32, i32* %5, align 4
  %56 = sext i32 %55 to i64
  %57 = getelementptr inbounds [10000 x i8], [10000 x i8]* %2, i64 0, i64 %56
  store i8 %54, i8* %57, align 1
  br label %58

58:                                               ; preds = %42, %30
  br label %59

59:                                               ; preds = %58
  %60 = load i32, i32* %5, align 4
  %61 = add nsw i32 %60, 1
  store i32 %61, i32* %5, align 4
  br label %24

62:                                               ; preds = %24
  br label %63

63:                                               ; preds = %62
  %64 = load i32, i32* %4, align 4
  %65 = add nsw i32 %64, 1
  store i32 %65, i32* %4, align 4
  br label %16

66:                                               ; preds = %16
  store i32 0, i32* %4, align 4
  br label %67

67:                                               ; preds = %114, %66
  %68 = load i32, i32* %4, align 4
  %69 = sext i32 %68 to i64
  %70 = getelementptr inbounds [10000 x i8], [10000 x i8]* %3, i64 0, i64 0
  %71 = call i64 @strlen(i8* %70) #3
  %72 = icmp ult i64 %69, %71
  br i1 %72, label %73, label %117

73:                                               ; preds = %67
  %74 = load i32, i32* %4, align 4
  store i32 %74, i32* %5, align 4
  br label %75

75:                                               ; preds = %110, %73
  %76 = load i32, i32* %5, align 4
  %77 = sext i32 %76 to i64
  %78 = getelementptr inbounds [10000 x i8], [10000 x i8]* %3, i64 0, i64 0
  %79 = call i64 @strlen(i8* %78) #3
  %80 = icmp ult i64 %77, %79
  br i1 %80, label %81, label %113

81:                                               ; preds = %75
  %82 = load i32, i32* %4, align 4
  %83 = sext i32 %82 to i64
  %84 = getelementptr inbounds [10000 x i8], [10000 x i8]* %3, i64 0, i64 %83
  %85 = load i8, i8* %84, align 1
  %86 = sext i8 %85 to i32
  %87 = load i32, i32* %5, align 4
  %88 = sext i32 %87 to i64
  %89 = getelementptr inbounds [10000 x i8], [10000 x i8]* %3, i64 0, i64 %88
  %90 = load i8, i8* %89, align 1
  %91 = sext i8 %90 to i32
  %92 = icmp sgt i32 %86, %91
  br i1 %92, label %93, label %109

93:                                               ; preds = %81
  %94 = load i32, i32* %4, align 4
  %95 = sext i32 %94 to i64
  %96 = getelementptr inbounds [10000 x i8], [10000 x i8]* %3, i64 0, i64 %95
  %97 = load i8, i8* %96, align 1
  store i8 %97, i8* %6, align 1
  %98 = load i32, i32* %5, align 4
  %99 = sext i32 %98 to i64
  %100 = getelementptr inbounds [10000 x i8], [10000 x i8]* %3, i64 0, i64 %99
  %101 = load i8, i8* %100, align 1
  %102 = load i32, i32* %4, align 4
  %103 = sext i32 %102 to i64
  %104 = getelementptr inbounds [10000 x i8], [10000 x i8]* %3, i64 0, i64 %103
  store i8 %101, i8* %104, align 1
  %105 = load i8, i8* %6, align 1
  %106 = load i32, i32* %5, align 4
  %107 = sext i32 %106 to i64
  %108 = getelementptr inbounds [10000 x i8], [10000 x i8]* %3, i64 0, i64 %107
  store i8 %105, i8* %108, align 1
  br label %109

109:                                              ; preds = %93, %81
  br label %110

110:                                              ; preds = %109
  %111 = load i32, i32* %5, align 4
  %112 = add nsw i32 %111, 1
  store i32 %112, i32* %5, align 4
  br label %75

113:                                              ; preds = %75
  br label %114

114:                                              ; preds = %113
  %115 = load i32, i32* %4, align 4
  %116 = add nsw i32 %115, 1
  store i32 %116, i32* %4, align 4
  br label %67

117:                                              ; preds = %67
  %118 = getelementptr inbounds [10000 x i8], [10000 x i8]* %2, i64 0, i64 0
  %119 = getelementptr inbounds [10000 x i8], [10000 x i8]* %3, i64 0, i64 0
  %120 = call i32 @strcmp(i8* %118, i8* %119) #3
  %121 = icmp eq i32 %120, 0
  br i1 %121, label %122, label %124

122:                                              ; preds = %117
  %123 = call i32 (i8*, ...) @printf(i8* getelementptr inbounds ([4 x i8], [4 x i8]* @.str.2, i64 0, i64 0))
  br label %126

124:                                              ; preds = %117
  %125 = call i32 (i8*, ...) @printf(i8* getelementptr inbounds ([3 x i8], [3 x i8]* @.str.1, i64 0, i64 0))
  br label %126

126:                                              ; preds = %124, %122
  br label %127

127:                                              ; preds = %126, %13
  ret i32 0
}

declare dso_local i32 @__isoc99_scanf(i8*, ...) #1

; Function Attrs: nounwind readonly
declare dso_local i64 @strlen(i8*) #2

declare dso_local i32 @printf(i8*, ...) #1

; Function Attrs: nounwind readonly
declare dso_local i32 @strcmp(i8*, i8*) #2


!llvm.module.flags = !{!0}
!llvm.ident = !{!1}

!0 = !{i32 1, !"wchar_size", i32 4}
!1 = !{!"clang version 10.0.0-4ubuntu1 "}
